; Function Attrs: nofree norecurse nosync nounwind memory(argmem: readwrite) uwtable
define internal void @rgb48LEToUV_half_c(ptr noundef writeonly captures(none) %0, ptr noundef writeonly captures(none) %1, ptr readnone captures(none) %2, ptr noundef readonly captures(none) %3, ptr readnone captures(none) %4, i32 noundef %5, ptr noundef readonly captures(none) %6, ptr readnone captures(none) %7) #1 {
  %9 = getelementptr inbounds nuw i8, ptr %6, i64 12
  %10 = load i32, ptr %9, align 4, !tbaa !42
  %11 = getelementptr inbounds nuw i8, ptr %6, i64 16
  %12 = load i32, ptr %11, align 4, !tbaa !42
  %13 = getelementptr inbounds nuw i8, ptr %6, i64 20
  %14 = load i32, ptr %13, align 4, !tbaa !42
  %15 = getelementptr inbounds nuw i8, ptr %6, i64 24
  %16 = load i32, ptr %15, align 4, !tbaa !42
  %17 = getelementptr inbounds nuw i8, ptr %6, i64 28
  %18 = load i32, ptr %17, align 4, !tbaa !42
  %19 = getelementptr inbounds nuw i8, ptr %6, i64 32
  %20 = load i32, ptr %19, align 4, !tbaa !42
  %21 = icmp sgt i32 %5, 0
  br i1 %21, label %.lr.ph.preheader, label %rgb48ToUV_half_c_template.exit

.lr.ph.preheader:                                 ; preds = %8
  %wide.trip.count = zext nneg i32 %5 to i64
  br label %.lr.ph

.lr.ph:                                           ; preds = %.lr.ph.preheader, %.lr.ph
  %indvars.iv = phi i64 [ 0, %.lr.ph.preheader ], [ %indvars.iv.next, %.lr.ph ]
  %.idx = mul nuw nsw i64 %indvars.iv, 12
  %22 = getelementptr inbounds nuw i8, ptr %3, i64 %.idx
  %23 = load i16, ptr %22, align 1, !tbaa !34
  %24 = zext i16 %23 to i32
  %25 = getelementptr inbounds nuw i8, ptr %22, i64 6
  %26 = load i16, ptr %25, align 1, !tbaa !34
  %27 = zext i16 %26 to i32
  %28 = add nuw nsw i32 %24, 1
  %29 = add nuw nsw i32 %28, %27
  %30 = lshr i32 %29, 1
  %31 = getelementptr inbounds nuw i8, ptr %22, i64 2
  %32 = load i16, ptr %31, align 1, !tbaa !34
  %33 = zext i16 %32 to i32
  %34 = getelementptr inbounds nuw i8, ptr %22, i64 8
  %35 = load i16, ptr %34, align 1, !tbaa !34
  %36 = zext i16 %35 to i32
  %37 = add nuw nsw i32 %33, 1
  %38 = add nuw nsw i32 %37, %36
  %39 = lshr i32 %38, 1
  %40 = getelementptr inbounds nuw i8, ptr %22, i64 4
  %41 = load i16, ptr %40, align 1, !tbaa !34
  %42 = zext i16 %41 to i32
  %43 = getelementptr inbounds nuw i8, ptr %22, i64 10
  %44 = load i16, ptr %43, align 1, !tbaa !34
  %45 = zext i16 %44 to i32
  %46 = add nuw nsw i32 %42, 1
  %47 = add nuw nsw i32 %46, %45
  %48 = lshr i32 %47, 1
  %49 = mul i32 %30, %10
  %50 = mul i32 %39, %12
  %51 = mul i32 %48, %14
  %52 = add i32 %49, 1073758208
  %53 = add i32 %52, %50
  %54 = add i32 %53, %51
  %55 = lshr i32 %54, 15
  %56 = trunc i32 %55 to i16
  %57 = getelementptr inbounds nuw i16, ptr %0, i64 %indvars.iv
  store i16 %56, ptr %57, align 2, !tbaa !43
  %58 = mul i32 %30, %16
  %59 = mul i32 %39, %18
  %60 = mul i32 %48, %20
  %61 = add i32 %58, 1073758208
  %62 = add i32 %61, %59
  %63 = add i32 %62, %60
  %64 = lshr i32 %63, 15
  %65 = trunc i32 %64 to i16
  %66 = getelementptr inbounds nuw i16, ptr %1, i64 %indvars.iv
  store i16 %65, ptr %66, align 2, !tbaa !43
  %indvars.iv.next = add nuw nsw i64 %indvars.iv, 1
  %exitcond.not = icmp eq i64 %indvars.iv.next, %wide.trip.count
  br i1 %exitcond.not, label %rgb48ToUV_half_c_template.exit, label %.lr.ph, !llvm.loop !77

rgb48ToUV_half_c_template.exit:                   ; preds = %.lr.ph, %8
  ret void
}